; ModuleID = '16/678.c'
source_filename = "16/678.c"
target datalayout = "e-m:e-p270:32:32-p271:32:32-p272:64:64-i64:64-f80:128-n8:16:32:64-S128"
target triple = "x86_64-pc-linux-gnu"

@.str = private unnamed_addr constant [3 x i8] c"%d\00", align 1
@.str.1 = private unnamed_addr constant [5 x i8] c"%04d\00", align 1
@.str.2 = private unnamed_addr constant [5 x i8] c"%03d\00", align 1
@.str.3 = private unnamed_addr constant [5 x i8] c"%02d\00", align 1

; Function Attrs: noinline nounwind uwtable
define dso_local i32 @main() #0 {
  %1 = alloca i32, align 4
  %2 = alloca i32, align 4
  %3 = alloca i32, align 4
  %4 = alloca i32, align 4
  %5 = alloca i32, align 4
  %6 = alloca i32, align 4
  %7 = alloca i32, align 4
  store i32 0, i32* %1, align 4
  %8 = call i32 (i8*, ...) @__isoc99_scanf(i8* getelementptr inbounds ([3 x i8], [3 x i8]* @.str, i64 0, i64 0), i32* %2)
  %9 = load i32, i32* %2, align 4
  %10 = icmp sge i32 %9, 1000
  br i1 %10, label %11, label %34

11:                                               ; preds = %0
  %12 = load i32, i32* %2, align 4
  %13 = srem i32 %12, 10
  store i32 %13, i32* %3, align 4
  %14 = load i32, i32* %2, align 4
  %15 = srem i32 %14, 100
  %16 = sdiv i32 %15, 10
  store i32 %16, i32* %4, align 4
  %17 = load i32, i32* %2, align 4
  %18 = srem i32 %17, 1000
  %19 = sdiv i32 %18, 100
  store i32 %19, i32* %5, align 4
  %20 = load i32, i32* %2, align 4
  %21 = sdiv i32 %20, 1000
  store i32 %21, i32* %6, align 4
  %22 = load i32, i32* %3, align 4
  %23 = mul nsw i32 %22, 1000
  %24 = load i32, i32* %4, align 4
  %25 = mul nsw i32 %24, 100
  %26 = add nsw i32 %23, %25
  %27 = load i32, i32* %5, align 4
  %28 = mul nsw i32 %27, 10
  %29 = add nsw i32 %26, %28
  %30 = load i32, i32* %6, align 4
  %31 = add nsw i32 %29, %30
  store i32 %31, i32* %7, align 4
  %32 = load i32, i32* %7, align 4
  %33 = call i32 (i8*, ...) @printf(i8* getelementptr inbounds ([5 x i8], [5 x i8]* @.str.1, i64 0, i64 0), i32 %32)
  br label %73

34:                                               ; preds = %0
  %35 = load i32, i32* %2, align 4
  %36 = icmp sge i32 %35, 100
  br i1 %36, label %37, label %54

37:                                               ; preds = %34
  %38 = load i32, i32* %2, align 4
  %39 = srem i32 %38, 10
  store i32 %39, i32* %3, align 4
  %40 = load i32, i32* %2, align 4
  %41 = srem i32 %40, 100
  %42 = sdiv i32 %41, 10
  store i32 %42, i32* %4, align 4
  %43 = load i32, i32* %2, align 4
  %44 = sdiv i32 %43, 100
  store i32 %44, i32* %5, align 4
  %45 = load i32, i32* %3, align 4
  %46 = mul nsw i32 %45, 100
  %47 = load i32, i32* %4, align 4
  %48 = mul nsw i32 %47, 10
  %49 = add nsw i32 %46, %48
  %50 = load i32, i32* %5, align 4
  %51 = add nsw i32 %49, %50
  store i32 %51, i32* %7, align 4
  %52 = load i32, i32* %7, align 4
  %53 = call i32 (i8*, ...) @printf(i8* getelementptr inbounds ([5 x i8], [5 x i8]* @.str.2, i64 0, i64 0), i32 %52)
  br label %72

54:                                               ; preds = %34
  %55 = load i32, i32* %2, align 4
  %56 = icmp sge i32 %55, 10
  br i1 %56, label %57, label %68

57:                                               ; preds = %54
  %58 = load i32, i32* %2, align 4
  %59 = srem i32 %58, 10
  store i32 %59, i32* %3, align 4
  %60 = load i32, i32* %2, align 4
  %61 = sdiv i32 %60, 10
  store i32 %61, i32* %4, align 4
  %62 = load i32, i32* %3, align 4
  %63 = mul nsw i32 %62, 10
  %64 = load i32, i32* %4, align 4
  %65 = add nsw i32 %63, %64
  store i32 %65, i32* %7, align 4
  %66 = load i32, i32* %7, align 4
  %67 = call i32 (i8*, ...) @printf(i8* getelementptr inbounds ([5 x i8], [5 x i8]* @.str.3, i64 0, i64 0), i32 %66)
  br label %71

68:                                               ; preds = %54
  %69 = load i32, i32* %2, align 4
  %70 = call i32 (i8*, ...) @printf(i8* getelementptr inbounds ([3 x i8], [3 x i8]* @.str, i64 0, i64 0), i32 %69)
  br label %71

71:                                               ; preds = %68, %57
  br label %72

72:                                               ; preds = %71, %37
  br label %73

73:                                               ; preds = %72, %11
  ret i32 0
}

declare dso_local i32 @__isoc99_scanf(i8*, ...) #1

declare dso_local i32 @printf(i8*, ...) #1


!llvm.module.flags = !{!0}
!llvm.ident = !{!1}

!0 = !{i32 1, !"wchar_size", i32 4}
!1 = !{!"clang version 10.0.0-4ubuntu1 "}
